target datalayout = "e-m:e-p270:32:32-p271:32:32-p272:64:64-i64:64-i128:128-f80:128-n8:16:32:64-S128"
target triple = "x86_64-pc-linux-gnu"

%struct.H5_user_cb_state_t = type { %struct.H5E_user_cb_state_t }
%struct.H5E_user_cb_state_t = type { i32, %union.anon, ptr }
%union.anon = type { ptr }
%struct.H5VL_class_t = type { i32, i32, ptr, i32, i64, ptr, ptr, %struct.H5VL_info_class_t, %struct.H5VL_wrap_class_t, %struct.H5VL_attr_class_t, %struct.H5VL_dataset_class_t, %struct.H5VL_datatype_class_t, %struct.H5VL_file_class_t, %struct.H5VL_group_class_t, %struct.H5VL_link_class_t, %struct.H5VL_object_class_t, %struct.H5VL_introspect_class_t, %struct.H5VL_request_class_t, %struct.H5VL_blob_class_t, %struct.H5VL_token_class_t, ptr }
%struct.H5VL_info_class_t = type { i64, ptr, ptr, ptr, ptr, ptr }
%struct.H5VL_wrap_class_t = type { ptr, ptr, ptr, ptr, ptr }
%struct.H5VL_attr_class_t = type { ptr, ptr, ptr, ptr, ptr, ptr, ptr, ptr }
%struct.H5VL_dataset_class_t = type { ptr, ptr, ptr, ptr, ptr, ptr, ptr, ptr }
%struct.H5VL_datatype_class_t = type { ptr, ptr, ptr, ptr, ptr, ptr }
%struct.H5VL_file_class_t = type { ptr, ptr, ptr, ptr, ptr, ptr }
%struct.H5VL_group_class_t = type { ptr, ptr, ptr, ptr, ptr, ptr }
%struct.H5VL_link_class_t = type { ptr, ptr, ptr, ptr, ptr, ptr }
%struct.H5VL_object_class_t = type { ptr, ptr, ptr, ptr, ptr }
%struct.H5VL_introspect_class_t = type { ptr, ptr, ptr }
%struct.H5VL_request_class_t = type { ptr, ptr, ptr, ptr, ptr, ptr }
%struct.H5VL_blob_class_t = type { ptr, ptr, ptr, ptr }
%struct.H5VL_token_class_t = type { ptr, ptr, ptr }

@.str = private unnamed_addr constant [106 x i8] c"generated/home/dtcxzyw/WorkSpace/Projects/compilers/llvm-opt-benchmark/bench/hdf5/hdf5/src/H5VLcallback.c\00", align 1
@H5E_LIB_g = external global i64, align 8
@H5E_CANTSET_g = external global i64, align 8
@.str.2 = private unnamed_addr constant [37 x i8] c"preparation for user callback failed\00", align 1
@H5E_CANTRESTORE_g = external global i64, align 8
@H5E_VOL_g = external global i64, align 8
@H5VL_init_g = external global i8, align 1
@H5_libterm_g = external global i8, align 1
@H5E_UNSUPPORTED_g = external global i64, align 8
@H5E_CANTGET_g = external global i64, align 8
@__func__.H5VL__datatype_get = private unnamed_addr constant [19 x i8] c"H5VL__datatype_get\00", align 1
@.str.191 = private unnamed_addr constant [43 x i8] c"VOL connector has no 'datatype get' method\00", align 1
@.str.192 = private unnamed_addr constant [22 x i8] c"datatype 'get' failed\00", align 1

; Function Attrs: nounwind uwtable
define internal i32 @H5VL__datatype_get(ptr noundef %0, ptr noundef %1, ptr noundef %2, i64 noundef %3, ptr noundef %4) #0 {
  %6 = alloca i32, align 4
  %7 = alloca ptr, align 8
  %8 = alloca ptr, align 8
  %9 = alloca ptr, align 8
  %10 = alloca i64, align 8
  %11 = alloca ptr, align 8
  %12 = alloca i32, align 4
  %13 = alloca i8, align 1
  %14 = alloca %struct.H5_user_cb_state_t, align 8
  %15 = alloca i32, align 4
  store ptr %0, ptr %7, align 8, !tbaa !42
  store ptr %1, ptr %8, align 8, !tbaa !54
  store ptr %2, ptr %9, align 8, !tbaa !99
  store i64 %3, ptr %10, align 8, !tbaa !3
  store ptr %4, ptr %11, align 8, !tbaa !42
  call void @llvm.lifetime.start.p0(i64 4, ptr %12) #8
  store i32 0, ptr %12, align 4, !tbaa !7
  call void @llvm.lifetime.start.p0(i64 1, ptr %13) #8
  store i8 0, ptr %13, align 1, !tbaa !9
  %16 = load i8, ptr @H5VL_init_g, align 1, !tbaa !9, !range !14, !noundef !15
  %17 = trunc i8 %16 to i1
  br i1 %17, label %22, label %18

18:                                               ; preds = %5
  %19 = load i8, ptr @H5_libterm_g, align 1, !tbaa !9, !range !14, !noundef !15
  %20 = trunc i8 %19 to i1
  %21 = xor i1 %20, true
  br label %22

22:                                               ; preds = %18, %5
  %23 = phi i1 [ true, %5 ], [ %21, %18 ]
  %24 = xor i1 %23, true
  %25 = xor i1 %24, true
  %26 = zext i1 %25 to i32
  %27 = sext i32 %26 to i64
  %28 = call i64 @llvm.expect.i64(i64 %27, i64 1)
  %29 = icmp ne i64 %28, 0
  br i1 %29, label %30, label %135

30:                                               ; preds = %22
  %31 = load ptr, ptr %8, align 8, !tbaa !54
  %32 = getelementptr inbounds nuw %struct.H5VL_class_t, ptr %31, i32 0, i32 11
  %33 = getelementptr inbounds nuw %struct.H5VL_datatype_class_t, ptr %32, i32 0, i32 2
  %34 = load ptr, ptr %33, align 8, !tbaa !101
  %35 = icmp eq ptr null, %34
  br i1 %35, label %36, label %55

36:                                               ; preds = %30
  br label %37

37:                                               ; preds = %36
  br label %38

38:                                               ; preds = %37
  br label %39

39:                                               ; preds = %38
  %40 = load i64, ptr @H5E_VOL_g, align 8, !tbaa !3
  %41 = load i64, ptr @H5E_UNSUPPORTED_g, align 8, !tbaa !3
  %42 = call i32 (ptr, ptr, i32, i64, i64, ptr, ...) @H5E_printf_stack(ptr noundef @.str, ptr noundef @__func__.H5VL__datatype_get, i32 noundef 3100, i64 noundef %40, i64 noundef %41, ptr noundef @.str.191)
  br label %43

43:                                               ; preds = %39
  br label %44

44:                                               ; preds = %43
  store i8 1, ptr %13, align 1, !tbaa !9
  %45 = load i8, ptr %13, align 1, !tbaa !9, !range !14, !noundef !15
  %46 = trunc i8 %45 to i1
  %47 = zext i1 %46 to i8
  store i8 %47, ptr %13, align 1, !tbaa !9
  br label %48

48:                                               ; preds = %44
  br label %49

49:                                               ; preds = %48
  br label %50

50:                                               ; preds = %49
  store i32 -1, ptr %12, align 4, !tbaa !7
  br label %134

51:                                               ; No predecessors!
  br label %52

52:                                               ; preds = %51
  br label %53

53:                                               ; preds = %52
  br label %54

54:                                               ; preds = %53
  br label %55

55:                                               ; preds = %54, %30
  call void @llvm.lifetime.start.p0(i64 24, ptr %14) #8
  %56 = call i32 @H5_user_cb_prepare(ptr noundef %14)
  %57 = icmp slt i32 %56, 0
  br i1 %57, label %58, label %77

58:                                               ; preds = %55
  br label %59

59:                                               ; preds = %58
  br label %60

60:                                               ; preds = %59
  br label %61

61:                                               ; preds = %60
  %62 = load i64, ptr @H5E_LIB_g, align 8, !tbaa !3
  %63 = load i64, ptr @H5E_CANTSET_g, align 8, !tbaa !3
  %64 = call i32 (ptr, ptr, i32, i64, i64, ptr, ...) @H5E_printf_stack(ptr noundef @.str, ptr noundef @__func__.H5VL__datatype_get, i32 noundef 3103, i64 noundef %62, i64 noundef %63, ptr noundef @.str.2)
  br label %65

65:                                               ; preds = %61
  br label %66

66:                                               ; preds = %65
  store i8 1, ptr %13, align 1, !tbaa !9
  %67 = load i8, ptr %13, align 1, !tbaa !9, !range !14, !noundef !15
  %68 = trunc i8 %67 to i1
  %69 = zext i1 %68 to i8
  store i8 %69, ptr %13, align 1, !tbaa !9
  br label %70

70:                                               ; preds = %66
  br label %71

71:                                               ; preds = %70
  br label %72

72:                                               ; preds = %71
  store i32 -1, ptr %12, align 4, !tbaa !7
  store i32 10, ptr %15, align 4
  br label %109

73:                                               ; No predecessors!
  br label %74

74:                                               ; preds = %73
  br label %75

75:                                               ; preds = %74
  br label %76

76:                                               ; preds = %75
  br label %77

77:                                               ; preds = %76, %55
  %78 = load ptr, ptr %8, align 8, !tbaa !54
  %79 = getelementptr inbounds nuw %struct.H5VL_class_t, ptr %78, i32 0, i32 11
  %80 = getelementptr inbounds nuw %struct.H5VL_datatype_class_t, ptr %79, i32 0, i32 2
  %81 = load ptr, ptr %80, align 8, !tbaa !101
  %82 = load ptr, ptr %7, align 8, !tbaa !42
  %83 = load ptr, ptr %9, align 8, !tbaa !99
  %84 = load i64, ptr %10, align 8, !tbaa !3
  %85 = load ptr, ptr %11, align 8, !tbaa !42
  %86 = call i32 %81(ptr noundef %82, ptr noundef %83, i64 noundef %84, ptr noundef %85)
  store i32 %86, ptr %12, align 4, !tbaa !7
  %87 = call i32 @H5_user_cb_restore(ptr noundef %14)
  %88 = icmp slt i32 %87, 0
  br i1 %88, label %89, label %108

89:                                               ; preds = %77
  br label %90

90:                                               ; preds = %89
  br label %91

91:                                               ; preds = %90
  br label %92

92:                                               ; preds = %91
  %93 = load i64, ptr @H5E_LIB_g, align 8, !tbaa !3
  %94 = load i64, ptr @H5E_CANTRESTORE_g, align 8, !tbaa !3
  %95 = call i32 (ptr, ptr, i32, i64, i64, ptr, ...) @H5E_printf_stack(ptr noundef @.str, ptr noundef @__func__.H5VL__datatype_get, i32 noundef 3108, i64 noundef %93, i64 noundef %94, ptr noundef @.str.2)
  br label %96

96:                                               ; preds = %92
  br label %97

97:                                               ; preds = %96
  store i8 1, ptr %13, align 1, !tbaa !9
  %98 = load i8, ptr %13, align 1, !tbaa !9, !range !14, !noundef !15
  %99 = trunc i8 %98 to i1
  %100 = zext i1 %99 to i8
  store i8 %100, ptr %13, align 1, !tbaa !9
  br label %101

101:                                              ; preds = %97
  br label %102

102:                                              ; preds = %101
  br label %103

103:                                              ; preds = %102
  store i32 -1, ptr %12, align 4, !tbaa !7
  store i32 10, ptr %15, align 4
  br label %109

104:                                              ; No predecessors!
  br label %105

105:                                              ; preds = %104
  br label %106

106:                                              ; preds = %105
  br label %107

107:                                              ; preds = %106
  br label %108

108:                                              ; preds = %107, %77
  store i32 0, ptr %15, align 4
  br label %109

109:                                              ; preds = %103, %72, %108
  call void @llvm.lifetime.end.p0(i64 24, ptr %14) #8
  %110 = load i32, ptr %15, align 4
  switch i32 %110, label %137 [
    i32 0, label %111
    i32 10, label %134
  ]

111:                                              ; preds = %109
  %112 = load i32, ptr %12, align 4, !tbaa !7
  %113 = icmp slt i32 %112, 0
  br i1 %113, label %114, label %133

114:                                              ; preds = %111
  br label %115

115:                                              ; preds = %114
  br label %116

116:                                              ; preds = %115
  br label %117

117:                                              ; preds = %116
  %118 = load i64, ptr @H5E_VOL_g, align 8, !tbaa !3
  %119 = load i64, ptr @H5E_CANTGET_g, align 8, !tbaa !3
  %120 = call i32 (ptr, ptr, i32, i64, i64, ptr, ...) @H5E_printf_stack(ptr noundef @.str, ptr noundef @__func__.H5VL__datatype_get, i32 noundef 3110, i64 noundef %118, i64 noundef %119, ptr noundef @.str.192)
  br label %121

121:                                              ; preds = %117
  br label %122

122:                                              ; preds = %121
  store i8 1, ptr %13, align 1, !tbaa !9
  %123 = load i8, ptr %13, align 1, !tbaa !9, !range !14, !noundef !15
  %124 = trunc i8 %123 to i1
  %125 = zext i1 %124 to i8
  store i8 %125, ptr %13, align 1, !tbaa !9
  br label %126

126:                                              ; preds = %122
  br label %127

127:                                              ; preds = %126
  br label %128

128:                                              ; preds = %127
  store i32 -1, ptr %12, align 4, !tbaa !7
  br label %134

129:                                              ; No predecessors!
  br label %130

130:                                              ; preds = %129
  br label %131

131:                                              ; preds = %130
  br label %132

132:                                              ; preds = %131
  br label %133

133:                                              ; preds = %132, %111
  br label %134

134:                                              ; preds = %133, %109, %128, %50
  br label %135

135:                                              ; preds = %134, %22
  %136 = load i32, ptr %12, align 4, !tbaa !7
  store i32 %136, ptr %6, align 4
  store i32 1, ptr %15, align 4
  br label %137

137:                                              ; preds = %135, %109
  call void @llvm.lifetime.end.p0(i64 1, ptr %13) #8
  call void @llvm.lifetime.end.p0(i64 4, ptr %12) #8
  %138 = load i32, ptr %6, align 4
  ret i32 %138
}